target datalayout = "e-m:e-p270:32:32-p271:32:32-p272:64:64-i64:64-i128:128-f80:128-n8:16:32:64-S128"
target triple = "x86_64-unknown-linux-gnu"

%"class.google::protobuf::io::ZeroCopyInputStream" = type { ptr }
%"class.google::protobuf::io::ConcatenatingInputStream" = type { %"class.google::protobuf::io::ZeroCopyInputStream", ptr, i32, i64 }

@_ZTVN6google8protobuf2io19ZeroCopyInputStreamE = external unnamed_addr constant { [9 x ptr] }, align 8

; Function Attrs: mustprogress nounwind uwtable
define linkonce_odr hidden void @_ZN6google8protobuf2io19ZeroCopyInputStreamC2Ev(ptr noundef nonnull align 8 dereferenceable(8) %this) unnamed_addr #5 comdat align 2 {
entry:
  %this.addr = alloca ptr, align 8
  store ptr %this, ptr %this.addr, align 8
  %this1 = load ptr, ptr %this.addr, align 8
  store ptr getelementptr inbounds ({ [9 x ptr] }, ptr @_ZTVN6google8protobuf2io19ZeroCopyInputStreamE, i32 0, i32 0, i32 2), ptr %this1, align 8
  ret void
}

; Function Attrs: mustprogress nounwind uwtable
define void @_ZN6google8protobuf2io24ConcatenatingInputStreamC2EPKPNS1_19ZeroCopyInputStreamEi(ptr noundef nonnull align 8 dereferenceable(32) %this, ptr noundef %streams, i32 noundef %count) unnamed_addr #5 align 2 {
entry:
  %this.addr = alloca ptr, align 8
  %streams.addr = alloca ptr, align 8
  %count.addr = alloca i32, align 4
  store ptr %this, ptr %this.addr, align 8
  store ptr %streams, ptr %streams.addr, align 8
  store i32 %count, ptr %count.addr, align 4
  %this1 = load ptr, ptr %this.addr, align 8
  call void @_ZN6google8protobuf2io19ZeroCopyInputStreamC2Ev(ptr noundef nonnull align 8 dereferenceable(8) %this1) #3
  store ptr getelementptr inbounds ({ [9 x ptr] }, ptr @_ZTVN6google8protobuf2io24ConcatenatingInputStreamE, i32 0, i32 0, i32 2), ptr %this1, align 8
  %streams_ = getelementptr inbounds %"class.google::protobuf::io::ConcatenatingInputStream", ptr %this1, i32 0, i32 1
  %0 = load ptr, ptr %streams.addr, align 8
  store ptr %0, ptr %streams_, align 8
  %stream_count_ = getelementptr inbounds %"class.google::protobuf::io::ConcatenatingInputStream", ptr %this1, i32 0, i32 2
  %1 = load i32, ptr %count.addr, align 4
  store i32 %1, ptr %stream_count_, align 8
  %bytes_retired_ = getelementptr inbounds %"class.google::protobuf::io::ConcatenatingInputStream", ptr %this1, i32 0, i32 3
  store i64 0, ptr %bytes_retired_, align 8
  ret void
}