; Function Attrs: mustprogress nofree norecurse nosync nounwind willreturn memory(argmem: write) uwtable
define void @_ZN6google8protobuf2io24ConcatenatingInputStreamC2EPKPNS1_19ZeroCopyInputStreamEi(ptr nocapture noundef nonnull writeonly align 8 dereferenceable(32) %this, ptr noundef %streams, i32 noundef %count) unnamed_addr #12 align 2 {
entry:
  store ptr getelementptr inbounds ({ [9 x ptr] }, ptr @_ZTVN6google8protobuf2io24ConcatenatingInputStreamE, i64 0, i32 0, i64 2), ptr %this, align 8
  %streams_ = getelementptr inbounds i8, ptr %this, i64 8
  store ptr %streams, ptr %streams_, align 8
  %stream_count_ = getelementptr inbounds i8, ptr %this, i64 16
  store i32 %count, ptr %stream_count_, align 8
  %bytes_retired_ = getelementptr inbounds i8, ptr %this, i64 24
  store i64 0, ptr %bytes_retired_, align 8
  ret void
}